target datalayout = "e-m:e-p270:32:32-p271:32:32-p272:64:64-i64:64-i128:128-f80:128-n8:16:32:64-S128"
target triple = "x86_64-pc-linux-gnu"

%class.QColor = type <{ i32, %"union.QColor::CT", [2 x i8] }>
%"union.QColor::CT" = type { %struct.anon }
%struct.anon = type { i16, i16, i16, i16, i16 }
%class.ByteViewText = type { %class.QAbstractScrollArea, %class.IDataPrintable, ptr, %class.QByteArray, %class.QColor, %class.QColor, i32, %class.QMenu, i32, i32, i32, i32, i32, i32, i32, i32, i8, i8, i8, i32, i32, i32, %class.QList, i8, %class.QList.5, ptr, ptr, ptr, ptr, ptr, ptr, ptr, ptr }
%class.QAbstractScrollArea = type { %class.QFrame }
%class.QFrame = type { %class.QWidget }
%class.QWidget = type { %class.QObject, %class.QPaintDevice.base, ptr }
%class.QObject = type { ptr, %class.QScopedPointer }
%class.QScopedPointer = type { ptr }
%class.QPaintDevice.base = type <{ ptr, i16 }>
%class.IDataPrintable = type { ptr }
%class.QByteArray = type { %struct.QArrayDataPointer }
%struct.QArrayDataPointer = type { ptr, ptr, i64 }
%class.QMenu = type { %class.QWidget }
%class.QList = type { %struct.QArrayDataPointer.4 }
%struct.QArrayDataPointer.4 = type { ptr, ptr, i64 }
%class.QList.5 = type { %struct.QArrayDataPointer.8 }
%struct.QArrayDataPointer.8 = type { ptr, ptr, i64 }

; Function Attrs: mustprogress uwtable
define void @_ZN12ByteViewText12scrollToByteEi(ptr noundef nonnull align 8 dereferenceable(328) %0, i32 noundef %1) #0 align 2 {
  %3 = alloca ptr, align 8
  %4 = alloca i32, align 4
  store ptr %0, ptr %3, align 8
  store i32 %1, ptr %4, align 4
  %5 = load ptr, ptr %3, align 8
  %6 = call noundef ptr @_ZNK19QAbstractScrollArea17verticalScrollBarEv(ptr noundef nonnull align 8 dereferenceable(40) %5)
  %7 = load i32, ptr %4, align 4
  %8 = getelementptr inbounds %class.ByteViewText, ptr %5, i32 0, i32 19
  %9 = load i32, ptr %8, align 4
  %10 = sdiv i32 %7, %9
  call void @_ZN15QAbstractSlider8setValueEi(ptr noundef nonnull align 8 dereferenceable(40) %6, i32 noundef %10)
  ret void
}

; Function Attrs: mustprogress uwtable
define void @_ZN12ByteViewText9markFieldEiib(ptr noundef nonnull align 8 dereferenceable(328) %0, i32 noundef %1, i32 noundef %2, i1 noundef zeroext %3) #0 align 2 {
  %5 = alloca ptr, align 8
  %6 = alloca i32, align 4
  %7 = alloca i32, align 4
  %8 = alloca i8, align 1
  store ptr %0, ptr %5, align 8
  store i32 %1, ptr %6, align 4
  store i32 %2, ptr %7, align 4
  %9 = zext i1 %3 to i8
  store i8 %9, ptr %8, align 1
  %10 = load ptr, ptr %5, align 8
  %11 = load i32, ptr %6, align 4
  %12 = getelementptr inbounds %class.ByteViewText, ptr %10, i32 0, i32 12
  store i32 %11, ptr %12, align 8
  %13 = load i32, ptr %7, align 4
  %14 = getelementptr inbounds %class.ByteViewText, ptr %10, i32 0, i32 13
  store i32 %13, ptr %14, align 4
  %15 = getelementptr inbounds %class.ByteViewText, ptr %10, i32 0, i32 9
  store i32 -1, ptr %15, align 4
  %16 = load i8, ptr %8, align 1
  %17 = trunc i8 %16 to i1
  br i1 %17, label %18, label %20

18:                                               ; preds = %4
  %19 = load i32, ptr %6, align 4
  call void @_ZN12ByteViewText12scrollToByteEi(ptr noundef nonnull align 8 dereferenceable(328) %10, i32 noundef %19)
  br label %20

20:                                               ; preds = %18, %4
  %21 = call noundef ptr @_ZNK19QAbstractScrollArea8viewportEv(ptr noundef nonnull align 8 dereferenceable(40) %10)
  call void @_ZN7QWidget6updateEv(ptr noundef nonnull align 8 dereferenceable(40) %21)
  ret void
}