; Function Attrs: mustprogress uwtable
define void @_ZN12ByteViewText9markFieldEiib(ptr noundef nonnull align 8 dereferenceable(328) %0, i32 noundef %1, i32 noundef %2, i1 noundef zeroext %3) local_unnamed_addr #0 align 2 {
  %5 = getelementptr inbounds i8, ptr %0, i64 176
  store i32 %1, ptr %5, align 8
  %6 = getelementptr inbounds i8, ptr %0, i64 180
  store i32 %2, ptr %6, align 4
  %7 = getelementptr inbounds i8, ptr %0, i64 164
  store i32 -1, ptr %7, align 4
  br i1 %3, label %8, label %13

8:                                                ; preds = %4
  %9 = tail call noundef ptr @_ZNK19QAbstractScrollArea17verticalScrollBarEv(ptr noundef nonnull align 8 dereferenceable(40) %0)
  %10 = getelementptr inbounds i8, ptr %0, i64 196
  %11 = load i32, ptr %10, align 4
  %12 = sdiv i32 %1, %11
  tail call void @_ZN15QAbstractSlider8setValueEi(ptr noundef nonnull align 8 dereferenceable(40) %9, i32 noundef %12)
  br label %13

13:                                               ; preds = %8, %4
  %14 = tail call noundef ptr @_ZNK19QAbstractScrollArea8viewportEv(ptr noundef nonnull align 8 dereferenceable(40) %0)
  tail call void @_ZN7QWidget6updateEv(ptr noundef nonnull align 8 dereferenceable(40) %14)
  ret void
}